target datalayout = "e-m:e-p270:32:32-p271:32:32-p272:64:64-i64:64-i128:128-f80:128-n8:16:32:64-S128"
target triple = "x86_64-unknown-linux-gnu"

%struct.malloc_mutex_s = type { %union.anon }
%union.anon = type { %struct.anon }
%struct.anon = type { %struct.mutex_prof_data_t, %union.pthread_mutex_t, %struct.atomic_b_t }
%struct.mutex_prof_data_t = type { %struct.nstime_t, %struct.nstime_t, i64, i64, i32, %struct.atomic_u32_t, i64, ptr, i64 }
%struct.nstime_t = type { i64 }
%struct.atomic_u32_t = type { i32 }
%union.pthread_mutex_t = type { %struct.__pthread_mutex_s }
%struct.__pthread_mutex_s = type { i32, i32, i32, i32, i32, i16, i16, %struct.__pthread_internal_list }
%struct.__pthread_internal_list = type { ptr, ptr }
%struct.atomic_b_t = type { i8 }
%struct.tsd_s = type { i8, i8, i64, i64, i64, i64, i64, i64, i64, i64, i64, i64, i64, i64, ptr, i64, i64, i64, ptr, ptr, %struct.ticker_geom_s, i8, %struct.tsd_binshards_s, %struct.tsd_link_t, i8, %struct.peak_s, %struct.activity_callback_thunk_s, %struct.tcache_slow_s, %struct.rtree_ctx_s, %struct.atomic_u8_t, i64, i64, i64, i64, %struct.tcache_s, %struct.witness_tsd_s }
%struct.ticker_geom_s = type { i32, i32 }
%struct.tsd_binshards_s = type { [39 x i8] }
%struct.tsd_link_t = type { ptr, ptr }
%struct.peak_s = type { i64, i64 }
%struct.activity_callback_thunk_s = type { ptr, ptr }
%struct.tcache_slow_s = type { %struct.anon.8, %struct.cache_bin_array_descriptor_s, ptr, i32, [39 x i8], [39 x i8], [39 x i8], ptr, ptr }
%struct.anon.8 = type { ptr, ptr }
%struct.cache_bin_array_descriptor_s = type { %struct.anon.9, ptr }
%struct.anon.9 = type { ptr, ptr }
%struct.rtree_ctx_s = type { [16 x %struct.rtree_ctx_cache_elm_s], [8 x %struct.rtree_ctx_cache_elm_s] }
%struct.rtree_ctx_cache_elm_s = type { i64, ptr }
%struct.atomic_u8_t = type { i8 }
%struct.tcache_s = type { ptr, [76 x %struct.cache_bin_s] }
%struct.cache_bin_s = type { ptr, %struct.cache_bin_stats_s, i16, i16, i16 }
%struct.cache_bin_stats_s = type { i64 }
%struct.witness_tsd_s = type { %struct.witness_list_t, i8 }
%struct.witness_list_t = type { ptr }

@init_lock = internal global %struct.malloc_mutex_s zeroinitializer, align 8

; Function Attrs: nounwind uwtable
define internal void @tsd_post_reentrancy_raw(ptr noundef %tsd) #0 {
entry:
  %tsd.addr.i2 = alloca ptr, align 8
  %tsd.addr.i.i = alloca ptr, align 8
  %tsd.addr.i = alloca ptr, align 8
  %state.i = alloca i8, align 1
  %tsd.addr = alloca ptr, align 8
  %reentrancy_level = alloca ptr, align 8
  store ptr %tsd, ptr %tsd.addr, align 8
  %0 = load ptr, ptr %tsd.addr, align 8
  store ptr %0, ptr %tsd.addr.i, align 8
  %1 = load ptr, ptr %tsd.addr.i, align 8
  store ptr %1, ptr %tsd.addr.i.i, align 8
  %2 = load ptr, ptr %tsd.addr.i.i, align 8
  %state.i.i = getelementptr inbounds %struct.tsd_s, ptr %2, i32 0, i32 29
  %3 = load i8, ptr %state.i.i, align 8
  store i8 %3, ptr %state.i, align 1
  %4 = load ptr, ptr %tsd.addr.i, align 8
  store ptr %4, ptr %tsd.addr.i2, align 8
  %5 = load ptr, ptr %tsd.addr.i2, align 8
  %cant_access_tsd_items_directly_use_a_getter_or_setter_reentrancy_level.i = getelementptr inbounds %struct.tsd_s, ptr %5, i32 0, i32 1
  store ptr %cant_access_tsd_items_directly_use_a_getter_or_setter_reentrancy_level.i, ptr %reentrancy_level, align 8
  br label %do.body

do.body:                                          ; preds = %entry
  br label %do.end

do.end:                                           ; preds = %do.body
  %6 = load ptr, ptr %reentrancy_level, align 8
  %7 = load i8, ptr %6, align 1
  %dec = add i8 %7, -1
  store i8 %dec, ptr %6, align 1
  %conv = sext i8 %dec to i32
  %cmp = icmp eq i32 %conv, 0
  br i1 %cmp, label %if.then, label %if.end

if.then:                                          ; preds = %do.end
  %8 = load ptr, ptr %tsd.addr, align 8
  call void @tsd_slow_update(ptr noundef %8)
  br label %if.end

if.end:                                           ; preds = %if.then, %do.end
  ret void
}

; Function Attrs: nounwind uwtable
define internal void @witness_unlock(ptr noundef %witness_tsdn, ptr noundef %witness) #0 {
entry:
  %witness_tsdn.addr = alloca ptr, align 8
  %witness.addr = alloca ptr, align 8
  store ptr %witness_tsdn, ptr %witness_tsdn.addr, align 8
  store ptr %witness, ptr %witness.addr, align 8
  ret void
}

; Function Attrs: nounwind uwtable
define internal void @witness_assert_owner(ptr noundef %witness_tsdn, ptr noundef %witness) #0 {
entry:
  %witness_tsdn.addr = alloca ptr, align 8
  %witness.addr = alloca ptr, align 8
  store ptr %witness_tsdn, ptr %witness_tsdn.addr, align 8
  store ptr %witness, ptr %witness.addr, align 8
  ret void
}

; Function Attrs: nounwind uwtable
define internal void @post_reentrancy(ptr noundef %tsd) #0 {
entry:
  %tsd.addr = alloca ptr, align 8
  store ptr %tsd, ptr %tsd.addr, align 8
  %0 = load ptr, ptr %tsd.addr, align 8
  call void @tsd_post_reentrancy_raw(ptr noundef %0)
  ret void
}

; Function Attrs: nounwind uwtable
define internal void @malloc_mutex_unlock(ptr noundef %tsdn, ptr noundef %mutex) #0 {
entry:
  %tsd.addr.i4 = alloca ptr, align 8
  %tsd.addr.i = alloca ptr, align 8
  %tsdn.addr.i3.i = alloca ptr, align 8
  %tsdn.addr.i.i = alloca ptr, align 8
  %tsd.addr.i.i = alloca ptr, align 8
  %state.i.i = alloca i8, align 1
  %retval.i3 = alloca ptr, align 8
  %tsdn.addr.i = alloca ptr, align 8
  %tsd.i = alloca ptr, align 8
  %retval.i = alloca i32, align 4
  %mo.addr.i2 = alloca i32, align 4
  %a.addr.i = alloca ptr, align 8
  %val.addr.i = alloca i8, align 1
  %mo.addr.i = alloca i32, align 4
  %tsdn.addr = alloca ptr, align 8
  %mutex.addr = alloca ptr, align 8
  store ptr %tsdn, ptr %tsdn.addr, align 8
  store ptr %mutex, ptr %mutex.addr, align 8
  %0 = load ptr, ptr %mutex.addr, align 8
  %1 = getelementptr inbounds %struct.malloc_mutex_s, ptr %0, i32 0, i32 0
  %locked = getelementptr inbounds %struct.anon, ptr %1, i32 0, i32 2
  store ptr %locked, ptr %a.addr.i, align 8
  store i8 0, ptr %val.addr.i, align 1
  store i32 0, ptr %mo.addr.i, align 4
  %2 = load ptr, ptr %a.addr.i, align 8
  %3 = load i32, ptr %mo.addr.i, align 4
  store i32 %3, ptr %mo.addr.i2, align 4
  %4 = load i32, ptr %mo.addr.i2, align 4
  switch i32 %4, label %sw.epilog.i [
    i32 0, label %sw.bb.i
    i32 1, label %sw.bb1.i
    i32 2, label %sw.bb2.i
    i32 3, label %sw.bb3.i
    i32 4, label %sw.bb4.i
  ]

sw.bb.i:                                          ; preds = %entry
  store i32 0, ptr %retval.i, align 4
  br label %atomic_enum_to_builtin.exit

sw.bb1.i:                                         ; preds = %entry
  store i32 2, ptr %retval.i, align 4
  br label %atomic_enum_to_builtin.exit

sw.bb2.i:                                         ; preds = %entry
  store i32 3, ptr %retval.i, align 4
  br label %atomic_enum_to_builtin.exit

sw.bb3.i:                                         ; preds = %entry
  store i32 4, ptr %retval.i, align 4
  br label %atomic_enum_to_builtin.exit

sw.bb4.i:                                         ; preds = %entry
  store i32 5, ptr %retval.i, align 4
  br label %atomic_enum_to_builtin.exit

sw.epilog.i:                                      ; preds = %entry
  unreachable

atomic_enum_to_builtin.exit:                      ; preds = %sw.bb4.i, %sw.bb3.i, %sw.bb2.i, %sw.bb1.i, %sw.bb.i
  %5 = load i32, ptr %retval.i, align 4
  switch i32 %5, label %monotonic.i [
    i32 3, label %release.i
    i32 5, label %seqcst.i
  ]

monotonic.i:                                      ; preds = %atomic_enum_to_builtin.exit
  %6 = load i8, ptr %val.addr.i, align 1
  store atomic i8 %6, ptr %2 monotonic, align 1
  br label %atomic_store_b.exit

release.i:                                        ; preds = %atomic_enum_to_builtin.exit
  %7 = load i8, ptr %val.addr.i, align 1
  store atomic i8 %7, ptr %2 release, align 1
  br label %atomic_store_b.exit

seqcst.i:                                         ; preds = %atomic_enum_to_builtin.exit
  %8 = load i8, ptr %val.addr.i, align 1
  store atomic i8 %8, ptr %2 seq_cst, align 1
  br label %atomic_store_b.exit

atomic_store_b.exit:                              ; preds = %seqcst.i, %release.i, %monotonic.i
  %9 = load ptr, ptr %tsdn.addr, align 8
  store ptr %9, ptr %tsdn.addr.i, align 8
  %10 = load ptr, ptr %tsdn.addr.i, align 8
  store ptr %10, ptr %tsdn.addr.i.i, align 8
  %11 = load ptr, ptr %tsdn.addr.i.i, align 8
  %cmp.i.i = icmp eq ptr %11, null
  br i1 %cmp.i.i, label %if.then.i, label %if.end.i

if.then.i:                                        ; preds = %atomic_store_b.exit
  store ptr null, ptr %retval.i3, align 8
  br label %tsdn_witness_tsdp_get.exit

if.end.i:                                         ; preds = %atomic_store_b.exit
  %12 = load ptr, ptr %tsdn.addr.i, align 8
  store ptr %12, ptr %tsdn.addr.i3.i, align 8
  %13 = load ptr, ptr %tsdn.addr.i3.i, align 8
  store ptr %13, ptr %tsd.i, align 8
  %14 = load ptr, ptr %tsd.i, align 8
  store ptr %14, ptr %tsd.addr.i.i, align 8
  %15 = load ptr, ptr %tsd.addr.i.i, align 8
  store ptr %15, ptr %tsd.addr.i, align 8
  %16 = load ptr, ptr %tsd.addr.i, align 8
  %state.i = getelementptr inbounds %struct.tsd_s, ptr %16, i32 0, i32 29
  %17 = load i8, ptr %state.i, align 8
  store i8 %17, ptr %state.i.i, align 1
  %18 = load ptr, ptr %tsd.addr.i.i, align 8
  store ptr %18, ptr %tsd.addr.i4, align 8
  %19 = load ptr, ptr %tsd.addr.i4, align 8
  %cant_access_tsd_items_directly_use_a_getter_or_setter_witness_tsd.i = getelementptr inbounds %struct.tsd_s, ptr %19, i32 0, i32 35
  store ptr %cant_access_tsd_items_directly_use_a_getter_or_setter_witness_tsd.i, ptr %retval.i3, align 8
  br label %tsdn_witness_tsdp_get.exit

tsdn_witness_tsdp_get.exit:                       ; preds = %if.end.i, %if.then.i
  %20 = load ptr, ptr %retval.i3, align 8
  %21 = load ptr, ptr %mutex.addr, align 8
  %22 = getelementptr inbounds %struct.malloc_mutex_s, ptr %21, i32 0, i32 0
  call void @witness_unlock(ptr noundef %20, ptr noundef %22)
  %23 = load ptr, ptr %mutex.addr, align 8
  %24 = getelementptr inbounds %struct.malloc_mutex_s, ptr %23, i32 0, i32 0
  %lock = getelementptr inbounds %struct.anon, ptr %24, i32 0, i32 1
  %call1 = call i32 @pthread_mutex_unlock(ptr noundef %lock) #14
  ret void
}

; Function Attrs: nounwind uwtable
define internal void @malloc_mutex_assert_owner(ptr noundef %tsdn, ptr noundef %mutex) #0 {
entry:
  %tsd.addr.i1 = alloca ptr, align 8
  %tsd.addr.i = alloca ptr, align 8
  %tsdn.addr.i3.i = alloca ptr, align 8
  %tsdn.addr.i.i = alloca ptr, align 8
  %tsd.addr.i.i = alloca ptr, align 8
  %state.i.i = alloca i8, align 1
  %retval.i = alloca ptr, align 8
  %tsdn.addr.i = alloca ptr, align 8
  %tsd.i = alloca ptr, align 8
  %tsdn.addr = alloca ptr, align 8
  %mutex.addr = alloca ptr, align 8
  store ptr %tsdn, ptr %tsdn.addr, align 8
  store ptr %mutex, ptr %mutex.addr, align 8
  %0 = load ptr, ptr %tsdn.addr, align 8
  store ptr %0, ptr %tsdn.addr.i, align 8
  %1 = load ptr, ptr %tsdn.addr.i, align 8
  store ptr %1, ptr %tsdn.addr.i.i, align 8
  %2 = load ptr, ptr %tsdn.addr.i.i, align 8
  %cmp.i.i = icmp eq ptr %2, null
  br i1 %cmp.i.i, label %if.then.i, label %if.end.i

if.then.i:                                        ; preds = %entry
  store ptr null, ptr %retval.i, align 8
  br label %tsdn_witness_tsdp_get.exit

if.end.i:                                         ; preds = %entry
  %3 = load ptr, ptr %tsdn.addr.i, align 8
  store ptr %3, ptr %tsdn.addr.i3.i, align 8
  %4 = load ptr, ptr %tsdn.addr.i3.i, align 8
  store ptr %4, ptr %tsd.i, align 8
  %5 = load ptr, ptr %tsd.i, align 8
  store ptr %5, ptr %tsd.addr.i.i, align 8
  %6 = load ptr, ptr %tsd.addr.i.i, align 8
  store ptr %6, ptr %tsd.addr.i, align 8
  %7 = load ptr, ptr %tsd.addr.i, align 8
  %state.i = getelementptr inbounds %struct.tsd_s, ptr %7, i32 0, i32 29
  %8 = load i8, ptr %state.i, align 8
  store i8 %8, ptr %state.i.i, align 1
  %9 = load ptr, ptr %tsd.addr.i.i, align 8
  store ptr %9, ptr %tsd.addr.i1, align 8
  %10 = load ptr, ptr %tsd.addr.i1, align 8
  %cant_access_tsd_items_directly_use_a_getter_or_setter_witness_tsd.i = getelementptr inbounds %struct.tsd_s, ptr %10, i32 0, i32 35
  store ptr %cant_access_tsd_items_directly_use_a_getter_or_setter_witness_tsd.i, ptr %retval.i, align 8
  br label %tsdn_witness_tsdp_get.exit

tsdn_witness_tsdp_get.exit:                       ; preds = %if.end.i, %if.then.i
  %11 = load ptr, ptr %retval.i, align 8
  %12 = load ptr, ptr %mutex.addr, align 8
  %13 = getelementptr inbounds %struct.malloc_mutex_s, ptr %12, i32 0, i32 0
  call void @witness_assert_owner(ptr noundef %11, ptr noundef %13)
  ret void
}

; Function Attrs: nounwind uwtable
define internal void @malloc_init_hard_cleanup(ptr noundef %tsdn, i1 noundef zeroext %reentrancy_set) #0 {
entry:
  %tsdn.addr.i = alloca ptr, align 8
  %tsdn.addr = alloca ptr, align 8
  %reentrancy_set.addr = alloca i8, align 1
  %tsd = alloca ptr, align 8
  store ptr %tsdn, ptr %tsdn.addr, align 8
  %frombool = zext i1 %reentrancy_set to i8
  store i8 %frombool, ptr %reentrancy_set.addr, align 1
  %0 = load ptr, ptr %tsdn.addr, align 8
  call void @malloc_mutex_assert_owner(ptr noundef %0, ptr noundef @init_lock)
  %1 = load ptr, ptr %tsdn.addr, align 8
  call void @malloc_mutex_unlock(ptr noundef %1, ptr noundef @init_lock)
  %2 = load i8, ptr %reentrancy_set.addr, align 1
  %tobool = trunc i8 %2 to i1
  br i1 %tobool, label %if.then, label %if.end

if.then:                                          ; preds = %entry
  br label %do.body

do.body:                                          ; preds = %if.then
  br label %do.end

do.end:                                           ; preds = %do.body
  %3 = load ptr, ptr %tsdn.addr, align 8
  store ptr %3, ptr %tsdn.addr.i, align 8
  %4 = load ptr, ptr %tsdn.addr.i, align 8
  store ptr %4, ptr %tsd, align 8
  br label %do.body1

do.body1:                                         ; preds = %do.end
  br label %do.end2

do.end2:                                          ; preds = %do.body1
  %5 = load ptr, ptr %tsd, align 8
  call void @post_reentrancy(ptr noundef %5)
  br label %if.end

if.end:                                           ; preds = %do.end2, %entry
  ret void
}